; Function Attrs: mustprogress nofree norecurse nosync nounwind willreturn memory(argmem: read) uwtable
define dso_local noundef zeroext i1 @_ZNK4Luau7CodeGen3A6413IrLoweringA648hasErrorEv(ptr noundef nonnull readonly align 8 captures(none) dereferenceable(1497) %0) local_unnamed_addr #6 align 2 {
  %2 = getelementptr inbounds nuw i8, ptr %0, i64 1496
  %3 = load i8, ptr %2, align 8, !tbaa !45, !range !97, !noundef !98
  %4 = trunc nuw i8 %3 to i1
  %5 = getelementptr inbounds nuw i8, ptr %0, i64 356
  %6 = load i8, ptr %5, align 4, !range !97
  %7 = trunc nuw i8 %6 to i1
  %8 = select i1 %4, i1 true, i1 %7
  ret i1 %8
}